target datalayout = "e-m:e-p270:32:32-p271:32:32-p272:64:64-i64:64-i128:128-f80:128-n8:16:32:64-S128"
target triple = "x86_64-pc-linux-gnu"

%struct.cli_htu32 = type { ptr, i64, i64, i64 }
%struct.cli_htu32_element = type { i32, %union.anon }
%union.anon = type { i64 }

@.str.24 = private unnamed_addr constant [30 x i8] c"hashtab.c: new capacity: %zu\0A\00", align 1
@.str.27 = private unnamed_addr constant [47 x i8] c"hashtab.c: Impossible - unable to rehash table\00", align 1
@.str.28 = private unnamed_addr constant [31 x i8] c"Table %p size after grow: %zu\0A\00", align 1

; Function Attrs: nounwind uwtable
define internal i32 @hash32shift(i32 noundef %0) #0 {
  %2 = alloca i32, align 4
  store i32 %0, ptr %2, align 4
  %3 = load i32, ptr %2, align 4
  %4 = xor i32 %3, -1
  %5 = load i32, ptr %2, align 4
  %6 = shl i32 %5, 15
  %7 = add i32 %4, %6
  store i32 %7, ptr %2, align 4
  %8 = load i32, ptr %2, align 4
  %9 = load i32, ptr %2, align 4
  %10 = lshr i32 %9, 12
  %11 = xor i32 %8, %10
  store i32 %11, ptr %2, align 4
  %12 = load i32, ptr %2, align 4
  %13 = load i32, ptr %2, align 4
  %14 = shl i32 %13, 2
  %15 = add i32 %12, %14
  store i32 %15, ptr %2, align 4
  %16 = load i32, ptr %2, align 4
  %17 = load i32, ptr %2, align 4
  %18 = lshr i32 %17, 4
  %19 = xor i32 %16, %18
  store i32 %19, ptr %2, align 4
  %20 = load i32, ptr %2, align 4
  %21 = load i32, ptr %2, align 4
  %22 = shl i32 %21, 3
  %23 = add i32 %20, %22
  %24 = load i32, ptr %2, align 4
  %25 = shl i32 %24, 11
  %26 = add i32 %23, %25
  store i32 %26, ptr %2, align 4
  %27 = load i32, ptr %2, align 4
  %28 = load i32, ptr %2, align 4
  %29 = lshr i32 %28, 16
  %30 = xor i32 %27, %29
  store i32 %30, ptr %2, align 4
  %31 = load i32, ptr %2, align 4
  ret i32 %31
}

; Function Attrs: nounwind uwtable
define internal i64 @hash_htu32(i32 noundef %0, i64 noundef %1) #0 {
  %3 = alloca i32, align 4
  %4 = alloca i64, align 8
  %5 = alloca i64, align 8
  store i32 %0, ptr %3, align 4
  store i64 %1, ptr %4, align 8
  %6 = load i32, ptr %3, align 4
  %7 = call i32 @hash32shift(i32 noundef %6)
  %8 = zext i32 %7 to i64
  store i64 %8, ptr %5, align 8
  %9 = load i64, ptr %5, align 8
  %10 = load i64, ptr %4, align 8
  %11 = sub i64 %10, 1
  %12 = and i64 %9, %11
  ret i64 %12
}

; Function Attrs: nounwind uwtable
define internal i64 @nearest_power(i64 noundef %0) #0 {
  %2 = alloca i64, align 8
  %3 = alloca i64, align 8
  %4 = alloca i64, align 8
  store i64 %0, ptr %3, align 8
  store i64 64, ptr %4, align 8
  br label %5

5:                                                ; preds = %16, %1
  %6 = load i64, ptr %4, align 8
  %7 = load i64, ptr %3, align 8
  %8 = icmp ult i64 %6, %7
  br i1 %8, label %9, label %17

9:                                                ; preds = %5
  %10 = load i64, ptr %4, align 8
  %11 = shl i64 %10, 1
  store i64 %11, ptr %4, align 8
  %12 = load i64, ptr %4, align 8
  %13 = icmp eq i64 %12, 0
  br i1 %13, label %14, label %16

14:                                               ; preds = %9
  %15 = load i64, ptr %3, align 8
  store i64 %15, ptr %2, align 8
  br label %19

16:                                               ; preds = %9
  br label %5

17:                                               ; preds = %5
  %18 = load i64, ptr %4, align 8
  store i64 %18, ptr %2, align 8
  br label %19

19:                                               ; preds = %17, %14
  %20 = load i64, ptr %2, align 8
  ret i64 %20
}

; Function Attrs: nounwind uwtable
define internal i32 @cli_htu32_grow(ptr noundef %0, ptr noundef %1) #0 {
  %3 = alloca i32, align 4
  %4 = alloca ptr, align 8
  %5 = alloca ptr, align 8
  %6 = alloca i64, align 8
  %7 = alloca ptr, align 8
  %8 = alloca i64, align 8
  %9 = alloca i64, align 8
  %10 = alloca i64, align 8
  %11 = alloca ptr, align 8
  %12 = alloca i64, align 8
  store ptr %0, ptr %4, align 8
  store ptr %1, ptr %5, align 8
  %13 = load ptr, ptr %4, align 8
  %14 = getelementptr inbounds %struct.cli_htu32, ptr %13, i32 0, i32 1
  %15 = load i64, ptr %14, align 8
  %16 = add i64 %15, 1
  %17 = call i64 @nearest_power(i64 noundef %16)
  store i64 %17, ptr %6, align 8
  %18 = load ptr, ptr %5, align 8
  %19 = load i64, ptr %6, align 8
  %20 = call ptr @mpool_calloc(ptr noundef %18, i64 noundef %19, i64 noundef 16)
  store ptr %20, ptr %7, align 8
  store i64 0, ptr %10, align 8
  %21 = load i64, ptr %6, align 8
  call void (ptr, ...) @cli_dbgmsg(ptr noundef @.str.24, i64 noundef %21)
  %22 = load i64, ptr %6, align 8
  %23 = load ptr, ptr %4, align 8
  %24 = getelementptr inbounds %struct.cli_htu32, ptr %23, i32 0, i32 1
  %25 = load i64, ptr %24, align 8
  %26 = icmp eq i64 %22, %25
  br i1 %26, label %30, label %27

27:                                               ; preds = %2
  %28 = load ptr, ptr %7, align 8
  %29 = icmp ne ptr %28, null
  br i1 %29, label %31, label %30

30:                                               ; preds = %27, %2
  store i32 20, ptr %3, align 4
  br label %134

31:                                               ; preds = %27
  store i64 0, ptr %8, align 8
  br label %32

32:                                               ; preds = %108, %31
  %33 = load i64, ptr %8, align 8
  %34 = load ptr, ptr %4, align 8
  %35 = getelementptr inbounds %struct.cli_htu32, ptr %34, i32 0, i32 1
  %36 = load i64, ptr %35, align 8
  %37 = icmp ult i64 %33, %36
  br i1 %37, label %38, label %111

38:                                               ; preds = %32
  %39 = load ptr, ptr %4, align 8
  %40 = getelementptr inbounds %struct.cli_htu32, ptr %39, i32 0, i32 0
  %41 = load ptr, ptr %40, align 8
  %42 = load i64, ptr %8, align 8
  %43 = getelementptr inbounds %struct.cli_htu32_element, ptr %41, i64 %42
  %44 = getelementptr inbounds %struct.cli_htu32_element, ptr %43, i32 0, i32 0
  %45 = load i32, ptr %44, align 8
  %46 = icmp ne i32 %45, 0
  br i1 %46, label %47, label %107

47:                                               ; preds = %38
  %48 = load ptr, ptr %4, align 8
  %49 = getelementptr inbounds %struct.cli_htu32, ptr %48, i32 0, i32 0
  %50 = load ptr, ptr %49, align 8
  %51 = load i64, ptr %8, align 8
  %52 = getelementptr inbounds %struct.cli_htu32_element, ptr %50, i64 %51
  %53 = getelementptr inbounds %struct.cli_htu32_element, ptr %52, i32 0, i32 0
  %54 = load i32, ptr %53, align 8
  %55 = icmp ne i32 %54, -1
  br i1 %55, label %56, label %107

56:                                               ; preds = %47
  store i64 1, ptr %12, align 8
  %57 = load ptr, ptr %4, align 8
  %58 = getelementptr inbounds %struct.cli_htu32, ptr %57, i32 0, i32 0
  %59 = load ptr, ptr %58, align 8
  %60 = load i64, ptr %8, align 8
  %61 = getelementptr inbounds %struct.cli_htu32_element, ptr %59, i64 %60
  %62 = getelementptr inbounds %struct.cli_htu32_element, ptr %61, i32 0, i32 0
  %63 = load i32, ptr %62, align 8
  %64 = load i64, ptr %6, align 8
  %65 = call i64 @hash_htu32(i32 noundef %63, i64 noundef %64)
  store i64 %65, ptr %9, align 8
  %66 = load ptr, ptr %7, align 8
  %67 = load i64, ptr %9, align 8
  %68 = getelementptr inbounds %struct.cli_htu32_element, ptr %66, i64 %67
  store ptr %68, ptr %11, align 8
  br label %69

69:                                               ; preds = %80, %56
  %70 = load ptr, ptr %11, align 8
  %71 = getelementptr inbounds %struct.cli_htu32_element, ptr %70, i32 0, i32 0
  %72 = load i32, ptr %71, align 8
  %73 = icmp ne i32 %72, 0
  br i1 %73, label %74, label %78

74:                                               ; preds = %69
  %75 = load i64, ptr %12, align 8
  %76 = load i64, ptr %6, align 8
  %77 = icmp ule i64 %75, %76
  br label %78

78:                                               ; preds = %74, %69
  %79 = phi i1 [ false, %69 ], [ %77, %74 ]
  br i1 %79, label %80, label %91

80:                                               ; preds = %78
  %81 = load i64, ptr %9, align 8
  %82 = load i64, ptr %12, align 8
  %83 = add i64 %82, 1
  store i64 %83, ptr %12, align 8
  %84 = add i64 %81, %82
  %85 = load i64, ptr %6, align 8
  %86 = sub i64 %85, 1
  %87 = and i64 %84, %86
  store i64 %87, ptr %9, align 8
  %88 = load ptr, ptr %7, align 8
  %89 = load i64, ptr %9, align 8
  %90 = getelementptr inbounds %struct.cli_htu32_element, ptr %88, i64 %89
  store ptr %90, ptr %11, align 8
  br label %69

91:                                               ; preds = %78
  %92 = load ptr, ptr %11, align 8
  %93 = getelementptr inbounds %struct.cli_htu32_element, ptr %92, i32 0, i32 0
  %94 = load i32, ptr %93, align 8
  %95 = icmp ne i32 %94, 0
  br i1 %95, label %105, label %96

96:                                               ; preds = %91
  %97 = load ptr, ptr %11, align 8
  %98 = load ptr, ptr %4, align 8
  %99 = getelementptr inbounds %struct.cli_htu32, ptr %98, i32 0, i32 0
  %100 = load ptr, ptr %99, align 8
  %101 = load i64, ptr %8, align 8
  %102 = getelementptr inbounds %struct.cli_htu32_element, ptr %100, i64 %101
  call void @llvm.memcpy.p0.p0.i64(ptr align 8 %97, ptr align 8 %102, i64 16, i1 false)
  %103 = load i64, ptr %10, align 8
  %104 = add i64 %103, 1
  store i64 %104, ptr %10, align 8
  br label %106

105:                                              ; preds = %91
  call void (ptr, ...) @cli_errmsg(ptr noundef @.str.27)
  store i32 20, ptr %3, align 4
  br label %134

106:                                              ; preds = %96
  br label %107

107:                                              ; preds = %106, %47, %38
  br label %108

108:                                              ; preds = %107
  %109 = load i64, ptr %8, align 8
  %110 = add i64 %109, 1
  store i64 %110, ptr %8, align 8
  br label %32

111:                                              ; preds = %32
  %112 = load ptr, ptr %5, align 8
  %113 = load ptr, ptr %4, align 8
  %114 = getelementptr inbounds %struct.cli_htu32, ptr %113, i32 0, i32 0
  %115 = load ptr, ptr %114, align 8
  call void @mpool_free(ptr noundef %112, ptr noundef %115)
  %116 = load ptr, ptr %7, align 8
  %117 = load ptr, ptr %4, align 8
  %118 = getelementptr inbounds %struct.cli_htu32, ptr %117, i32 0, i32 0
  store ptr %116, ptr %118, align 8
  %119 = load i64, ptr %10, align 8
  %120 = load ptr, ptr %4, align 8
  %121 = getelementptr inbounds %struct.cli_htu32, ptr %120, i32 0, i32 2
  store i64 %119, ptr %121, align 8
  %122 = load i64, ptr %6, align 8
  %123 = load ptr, ptr %4, align 8
  %124 = getelementptr inbounds %struct.cli_htu32, ptr %123, i32 0, i32 1
  store i64 %122, ptr %124, align 8
  %125 = load i64, ptr %6, align 8
  %126 = mul i64 %125, 8
  %127 = udiv i64 %126, 10
  %128 = load ptr, ptr %4, align 8
  %129 = getelementptr inbounds %struct.cli_htu32, ptr %128, i32 0, i32 3
  store i64 %127, ptr %129, align 8
  %130 = load ptr, ptr %4, align 8
  %131 = load ptr, ptr %4, align 8
  %132 = getelementptr inbounds %struct.cli_htu32, ptr %131, i32 0, i32 1
  %133 = load i64, ptr %132, align 8
  call void (ptr, ...) @cli_dbgmsg(ptr noundef @.str.28, ptr noundef %130, i64 noundef %133)
  store i32 0, ptr %3, align 4
  br label %134

134:                                              ; preds = %111, %105, %30
  %135 = load i32, ptr %3, align 4
  ret i32 %135
}