; Function Attrs: nounwind uwtable
define internal fastcc void @cli_htu32_grow(ptr noundef %0, ptr noundef %1) unnamed_addr #0 {
  %3 = getelementptr inbounds i8, ptr %0, i64 8
  %4 = load i64, ptr %3, align 8
  %5 = add i64 %4, 1
  br label %6

6:                                                ; preds = %8, %2
  %.0.i = phi i64 [ 64, %2 ], [ %9, %8 ]
  %7 = icmp ult i64 %.0.i, %5
  br i1 %7, label %8, label %nearest_power.exit

8:                                                ; preds = %6
  %9 = shl i64 %.0.i, 1
  %10 = icmp eq i64 %9, 0
  br i1 %10, label %nearest_power.exit, label %6

nearest_power.exit:                               ; preds = %6, %8
  %.07.i = phi i64 [ %5, %8 ], [ %.0.i, %6 ]
  %11 = tail call ptr @mpool_calloc(ptr noundef %1, i64 noundef %.07.i, i64 noundef 16) #18
  tail call void (ptr, ...) @cli_dbgmsg(ptr noundef nonnull @.str.24, i64 noundef %.07.i) #18
  %12 = load i64, ptr %3, align 8
  %13 = icmp ne i64 %.07.i, %12
  %14 = icmp ne ptr %11, null
  %or.cond = select i1 %13, i1 %14, i1 false
  br i1 %or.cond, label %.preheader, label %53

.preheader:                                       ; preds = %nearest_power.exit
  %.not = icmp eq i64 %12, 0
  br i1 %.not, label %._crit_edge62, label %.lr.ph61.split.preheader

.lr.ph61.split.preheader:                         ; preds = %.preheader
  %15 = add i64 %.07.i, 4294967295
  %16 = add i64 %.07.i, -1
  br label %.lr.ph61.split

.lr.ph61.split:                                   ; preds = %.lr.ph61.split.preheader, %44
  %17 = phi i64 [ %45, %44 ], [ %12, %.lr.ph61.split.preheader ]
  %.04660 = phi i64 [ %.1, %44 ], [ 0, %.lr.ph61.split.preheader ]
  %.04859 = phi i64 [ %46, %44 ], [ 0, %.lr.ph61.split.preheader ]
  %18 = load ptr, ptr %0, align 8
  %19 = getelementptr inbounds %struct.cli_htu32_element, ptr %18, i64 %.04859
  %20 = load i32, ptr %19, align 8
  switch i32 %20, label %21 [
    i32 0, label %44
    i32 -1, label %44
  ]

21:                                               ; preds = %.lr.ph61.split
  %22 = xor i32 %20, -1
  %23 = shl i32 %20, 15
  %24 = add i32 %23, %22
  %25 = lshr i32 %24, 12
  %26 = xor i32 %25, %24
  %27 = mul i32 %26, 5
  %28 = lshr i32 %27, 4
  %29 = xor i32 %28, %27
  %30 = mul i32 %29, 2057
  %31 = lshr i32 %30, 16
  %32 = xor i32 %31, %30
  %33 = zext i32 %32 to i64
  %34 = and i64 %15, %33
  %.04555 = getelementptr inbounds %struct.cli_htu32_element, ptr %11, i64 %34
  %35 = load i32, ptr %.04555, align 8
  %.not68 = icmp eq i32 %35, 0
  br i1 %.not68, label %._crit_edge.thread, label %.lr.ph

.lr.ph:                                           ; preds = %21, %.lr.ph
  %.057 = phi i64 [ %36, %.lr.ph ], [ 1, %21 ]
  %.04756 = phi i64 [ %38, %.lr.ph ], [ %34, %21 ]
  %36 = add i64 %.057, 1
  %37 = add i64 %.057, %.04756
  %38 = and i64 %37, %16
  %.045 = getelementptr inbounds %struct.cli_htu32_element, ptr %11, i64 %38
  %39 = load i32, ptr %.045, align 8
  %40 = icmp ne i32 %39, 0
  %41 = icmp ule i64 %36, %.07.i
  %42 = and i1 %40, %41
  br i1 %42, label %.lr.ph, label %._crit_edge

._crit_edge:                                      ; preds = %.lr.ph
  br i1 %40, label %.split.us, label %._crit_edge.thread

._crit_edge.thread:                               ; preds = %21, %._crit_edge
  %.045.lcssa71 = phi ptr [ %.045, %._crit_edge ], [ %.04555, %21 ]
  tail call void @llvm.memcpy.p0.p0.i64(ptr noundef nonnull align 8 dereferenceable(16) %.045.lcssa71, ptr noundef nonnull align 8 dereferenceable(16) %19, i64 16, i1 false)
  %43 = add i64 %.04660, 1
  %.pre = load i64, ptr %3, align 8
  br label %44

.split.us:                                        ; preds = %._crit_edge
  tail call void (ptr, ...) @cli_errmsg(ptr noundef nonnull @.str.27) #18
  br label %53

44:                                               ; preds = %.lr.ph61.split, %.lr.ph61.split, %._crit_edge.thread
  %45 = phi i64 [ %.pre, %._crit_edge.thread ], [ %17, %.lr.ph61.split ], [ %17, %.lr.ph61.split ]
  %.1 = phi i64 [ %43, %._crit_edge.thread ], [ %.04660, %.lr.ph61.split ], [ %.04660, %.lr.ph61.split ]
  %46 = add nuw i64 %.04859, 1
  %47 = icmp ult i64 %46, %45
  br i1 %47, label %.lr.ph61.split, label %._crit_edge62

._crit_edge62:                                    ; preds = %44, %.preheader
  %.046.lcssa = phi i64 [ 0, %.preheader ], [ %.1, %44 ]
  %48 = load ptr, ptr %0, align 8
  tail call void @mpool_free(ptr noundef %1, ptr noundef %48) #18
  store ptr %11, ptr %0, align 8
  %49 = getelementptr inbounds i8, ptr %0, i64 16
  store i64 %.046.lcssa, ptr %49, align 8
  store i64 %.07.i, ptr %3, align 8
  %50 = shl i64 %.07.i, 3
  %51 = udiv i64 %50, 10
  %52 = getelementptr inbounds i8, ptr %0, i64 24
  store i64 %51, ptr %52, align 8
  tail call void (ptr, ...) @cli_dbgmsg(ptr noundef nonnull @.str.28, ptr noundef nonnull %0, i64 noundef %.07.i) #18
  br label %53

53:                                               ; preds = %nearest_power.exit, %._crit_edge62, %.split.us
  ret void
}